; Function Attrs: nounwind uwtable
define dso_local { ptr, ptr } @gen_op_target(i32 noundef %0, ptr readnone captures(none) %1, ptr %2) local_unnamed_addr #1 {
  %4 = tail call ptr @jv_mem_alloc(i64 noundef 160) #17
  %5 = getelementptr inbounds nuw i8, ptr %4, i64 16
  tail call void @llvm.memset.p0.i64(ptr noundef nonnull align 8 dereferenceable(16) %4, i8 0, i64 16, i1 false)
  store i32 %0, ptr %5, align 8, !tbaa !25
  %6 = getelementptr inbounds nuw i8, ptr %4, i64 152
  store i32 -1, ptr %6, align 8, !tbaa !26
  %7 = getelementptr inbounds nuw i8, ptr %4, i64 80
  %8 = getelementptr inbounds nuw i8, ptr %4, i64 104
  tail call void @llvm.memset.p0.i64(ptr noundef nonnull align 8 dereferenceable(24) %7, i8 0, i64 24, i1 false)
  store i32 -1, ptr %8, align 8, !tbaa !27
  %9 = getelementptr inbounds nuw i8, ptr %4, i64 108
  store i32 -1, ptr %9, align 4, !tbaa !28
  %10 = getelementptr inbounds nuw i8, ptr %4, i64 112
  %11 = getelementptr inbounds nuw i8, ptr %4, i64 72
  tail call void @llvm.memset.p0.i64(ptr noundef nonnull align 8 dereferenceable(32) %10, i8 0, i64 32, i1 false)
  store i64 -1, ptr %11, align 8
  %12 = getelementptr inbounds nuw i8, ptr %4, i64 64
  store ptr null, ptr %12, align 8, !tbaa !21
  %13 = getelementptr inbounds nuw i8, ptr %4, i64 32
  store ptr %2, ptr %13, align 8, !tbaa !32
  %.fca.0.insert.i = insertvalue { ptr, ptr } poison, ptr %4, 0
  %.fca.1.insert.i = insertvalue { ptr, ptr } %.fca.0.insert.i, ptr %4, 1
  ret { ptr, ptr } %.fca.1.insert.i
}